; Function Attrs: nounwind uwtable
define internal range(i32 0, 23) i32 @experimental_hooks_prof_backtrace_ctl(ptr readnone captures(none) %0, ptr readnone captures(none) %1, i64 %2, ptr noundef writeonly captures(address_is_null) %3, ptr noundef captures(address_is_null) %4, ptr noundef readonly captures(address_is_null) %5, i64 noundef %6) #0 {
  %8 = alloca ptr, align 8
  %9 = icmp eq ptr %3, null
  %10 = icmp eq ptr %5, null
  %or.cond = and i1 %9, %10
  br i1 %or.cond, label %.thread45, label %11

11:                                               ; preds = %7
  br i1 %9, label %18, label %12

12:                                               ; preds = %11
  call void @llvm.lifetime.start.p0(i64 8, ptr nonnull %8)
  %13 = tail call ptr @duckdb_je_prof_backtrace_hook_get() #14
  store ptr %13, ptr %8, align 8, !tbaa !213
  %.not34 = icmp eq ptr %4, null
  br i1 %.not34, label %.thread, label %14

14:                                               ; preds = %12
  %15 = load i64, ptr %4, align 8, !tbaa !3
  %.not35 = icmp eq i64 %15, 8
  br i1 %.not35, label %16, label %17

16:                                               ; preds = %14
  store ptr %13, ptr %3, align 8, !tbaa !213
  br label %.thread

.thread:                                          ; preds = %16, %12
  call void @llvm.lifetime.end.p0(i64 8, ptr nonnull %8)
  br label %18

17:                                               ; preds = %14
  %spec.select = tail call i64 @llvm.umin.i64(i64 %15, i64 8)
  call void @llvm.memcpy.p0.p0.i64(ptr nonnull align 1 %3, ptr nonnull align 8 %8, i64 %spec.select, i1 false)
  store i64 %spec.select, ptr %4, align 8, !tbaa !3
  call void @llvm.lifetime.end.p0(i64 8, ptr nonnull %8)
  br label %.thread45

18:                                               ; preds = %.thread, %11
  br i1 %10, label %.thread45, label %19

19:                                               ; preds = %18
  %20 = load i8, ptr @duckdb_je_opt_prof, align 1, !tbaa !133, !range !45, !noundef !46
  %21 = trunc nuw i8 %20 to i1
  br i1 %21, label %22, label %.thread45

22:                                               ; preds = %19
  %.not37 = icmp eq i64 %6, 8
  br i1 %.not37, label %23, label %.thread45

23:                                               ; preds = %22
  %24 = load ptr, ptr %5, align 8, !tbaa !213
  %25 = icmp eq ptr %24, null
  br i1 %25, label %.thread45, label %26

26:                                               ; preds = %23
  tail call void @duckdb_je_prof_backtrace_hook_set(ptr noundef nonnull %24) #14
  br label %.thread45

.thread45:                                        ; preds = %23, %22, %18, %26, %17, %7, %19
  %.028 = phi i32 [ 22, %17 ], [ 22, %7 ], [ 2, %19 ], [ 0, %26 ], [ 0, %18 ], [ 22, %22 ], [ 22, %23 ]
  ret i32 %.028
}